; Function Attrs: mustprogress uwtable
define internal fastcc void @_ZN11OpenImageIO6v3_1_0L9convolve_IttEEbRNS0_8ImageBufERKS2_S5_bNS0_3ROIEi(ptr noundef nonnull align 8 dereferenceable(16) %0, ptr noundef nonnull align 8 dereferenceable(16) %1, ptr noundef nonnull align 8 dereferenceable(16) %2, i1 noundef zeroext %3, ptr noundef readonly byval(%"struct.OpenImageIO::v3_1_0::ROI") align 8 captures(none) %4, i32 noundef %5) unnamed_addr #5 personality ptr @__gxx_personality_v0 {
  %7 = alloca i8, align 1
  %8 = alloca %"class.OpenImageIO::v3_1_0::paropt", align 8
  %9 = alloca %"class.std::function", align 8
  %10 = zext i1 %3 to i8
  store i8 %10, ptr %7, align 1, !tbaa !196
  store i32 %5, ptr %8, align 8, !tbaa !197
  %11 = getelementptr inbounds nuw i8, ptr %8, i64 4
  store i16 0, ptr %11, align 4, !tbaa !202
  %12 = getelementptr inbounds nuw i8, ptr %8, i64 6
  store i16 1, ptr %12, align 2, !tbaa !203
  %13 = getelementptr inbounds nuw i8, ptr %8, i64 8
  store i64 1024, ptr %13, align 8, !tbaa !204
  %14 = getelementptr inbounds nuw i8, ptr %8, i64 16
  store ptr null, ptr %14, align 8, !tbaa !205
  %15 = getelementptr inbounds nuw i8, ptr %8, i64 24
  store i8 0, ptr %15, align 8, !tbaa !206
  %16 = getelementptr inbounds nuw i8, ptr %9, i64 16
  %17 = getelementptr inbounds nuw i8, ptr %9, i64 24
  %18 = getelementptr inbounds nuw i8, ptr %9, i64 8
  store i64 0, ptr %18, align 8
  %19 = tail call noalias noundef nonnull dereferenceable(32) ptr @_Znwm(i64 noundef 32) #30
  store ptr %2, ptr %19, align 16, !tbaa !137
  %.sroa.5.0..sroa_idx = getelementptr inbounds nuw i8, ptr %19, i64 8
  store ptr %7, ptr %.sroa.5.0..sroa_idx, align 8, !tbaa !209
  %.sroa.6.0..sroa_idx = getelementptr inbounds nuw i8, ptr %19, i64 16
  store ptr %0, ptr %.sroa.6.0..sroa_idx, align 16, !tbaa !137
  %.sroa.7.0..sroa_idx = getelementptr inbounds nuw i8, ptr %19, i64 24
  store ptr %1, ptr %.sroa.7.0..sroa_idx, align 8, !tbaa !137
  store ptr %19, ptr %9, align 8, !tbaa !211
  store ptr @_ZNSt17_Function_handlerIFvN11OpenImageIO6v3_1_03ROIEEZNS1_L9convolve_IttEEbRNS1_8ImageBufERKS5_S8_bS2_iEUlS2_E_E9_M_invokeERKSt9_Any_dataOS2_, ptr %17, align 8, !tbaa !212
  store ptr @_ZNSt17_Function_handlerIFvN11OpenImageIO6v3_1_03ROIEEZNS1_L9convolve_IttEEbRNS1_8ImageBufERKS5_S8_bS2_iEUlS2_E_E10_M_managerERSt9_Any_dataRKSB_St18_Manager_operation, ptr %16, align 8, !tbaa !215
  invoke void @_ZN11OpenImageIO6v3_1_012ImageBufAlgo14parallel_imageENS0_3ROIENS0_6paroptESt8functionIFvS2_EE(ptr noundef nonnull byval(%"struct.OpenImageIO::v3_1_0::ROI") align 8 %4, ptr noundef nonnull byval(%"class.OpenImageIO::v3_1_0::paropt") align 8 %8, ptr noundef nonnull %9)
          to label %20 unwind label %27

20:                                               ; preds = %6
  %21 = load ptr, ptr %16, align 8, !tbaa !215
  %.not.i = icmp eq ptr %21, null
  br i1 %.not.i, label %_ZNSt14_Function_baseD2Ev.exit, label %22

22:                                               ; preds = %20
  %23 = invoke noundef zeroext i1 %21(ptr noundef nonnull align 8 dereferenceable(32) %9, ptr noundef nonnull align 8 dereferenceable(32) %9, i32 noundef 3)
          to label %_ZNSt14_Function_baseD2Ev.exit unwind label %24

24:                                               ; preds = %22
  %25 = landingpad { ptr, i32 }
          catch ptr null
  %26 = extractvalue { ptr, i32 } %25, 0
  call void @__clang_call_terminate(ptr %26) #31
  unreachable

_ZNSt14_Function_baseD2Ev.exit:                   ; preds = %20, %22
  ret void

27:                                               ; preds = %6
  %28 = landingpad { ptr, i32 }
          cleanup
  %29 = load ptr, ptr %16, align 8, !tbaa !215
  %.not.i5 = icmp eq ptr %29, null
  br i1 %.not.i5, label %_ZNSt14_Function_baseD2Ev.exit6, label %30

30:                                               ; preds = %27
  %31 = invoke noundef zeroext i1 %29(ptr noundef nonnull align 8 dereferenceable(32) %9, ptr noundef nonnull align 8 dereferenceable(32) %9, i32 noundef 3)
          to label %_ZNSt14_Function_baseD2Ev.exit6 unwind label %32

32:                                               ; preds = %30
  %33 = landingpad { ptr, i32 }
          catch ptr null
  %34 = extractvalue { ptr, i32 } %33, 0
  call void @__clang_call_terminate(ptr %34) #31
  unreachable

_ZNSt14_Function_baseD2Ev.exit6:                  ; preds = %27, %30
  resume { ptr, i32 } %28
}